target datalayout = "e-m:e-p270:32:32-p271:32:32-p272:64:64-i64:64-i128:128-f80:128-n8:16:32:64-S128"
target triple = "x86_64-pc-linux-gnu"

; Function Attrs: nounwind uwtable
define ptr @Java_sun_awt_X11_XlibWrapper_XGetDefault(ptr noundef %0, ptr noundef %1, i64 noundef %2, ptr noundef %3, ptr noundef %4) #0 {
  %6 = alloca ptr, align 8
  %7 = alloca ptr, align 8
  %8 = alloca ptr, align 8
  %9 = alloca i64, align 8
  %10 = alloca ptr, align 8
  %11 = alloca ptr, align 8
  %12 = alloca ptr, align 8
  %13 = alloca ptr, align 8
  %14 = alloca ptr, align 8
  store ptr %0, ptr %7, align 8
  store ptr %1, ptr %8, align 8
  store i64 %2, ptr %9, align 8
  store ptr %3, ptr %10, align 8
  store ptr %4, ptr %11, align 8
  store ptr null, ptr %12, align 8
  store ptr null, ptr %13, align 8
  store ptr null, ptr %14, align 8
  %15 = load ptr, ptr %10, align 8
  %16 = icmp eq ptr %15, null
  br i1 %16, label %21, label %17

17:                                               ; preds = %5
  %18 = load ptr, ptr %7, align 8
  %19 = load ptr, ptr %10, align 8
  %20 = call ptr @JNU_GetStringPlatformChars(ptr noundef %18, ptr noundef %19, ptr noundef null)
  store ptr %20, ptr %12, align 8
  br label %21

21:                                               ; preds = %17, %5
  br label %22

22:                                               ; preds = %21
  %23 = load ptr, ptr %12, align 8
  %24 = icmp eq ptr %23, null
  br i1 %24, label %25, label %26

25:                                               ; preds = %22
  store ptr null, ptr %6, align 8
  br label %60

26:                                               ; preds = %22
  br label %27

27:                                               ; preds = %26
  %28 = load ptr, ptr %11, align 8
  %29 = icmp eq ptr %28, null
  br i1 %29, label %34, label %30

30:                                               ; preds = %27
  %31 = load ptr, ptr %7, align 8
  %32 = load ptr, ptr %11, align 8
  %33 = call ptr @JNU_GetStringPlatformChars(ptr noundef %31, ptr noundef %32, ptr noundef null)
  store ptr %33, ptr %13, align 8
  br label %34

34:                                               ; preds = %30, %27
  %35 = load ptr, ptr %13, align 8
  %36 = icmp eq ptr %35, null
  br i1 %36, label %37, label %41

37:                                               ; preds = %34
  %38 = load ptr, ptr %7, align 8
  %39 = load ptr, ptr %10, align 8
  %40 = load ptr, ptr %12, align 8
  call void @JNU_ReleaseStringPlatformChars(ptr noundef %38, ptr noundef %39, ptr noundef %40)
  store ptr null, ptr %6, align 8
  br label %60

41:                                               ; preds = %34
  %42 = load i64, ptr %9, align 8
  %43 = inttoptr i64 %42 to ptr
  %44 = load ptr, ptr %12, align 8
  %45 = load ptr, ptr %13, align 8
  %46 = call ptr @XGetDefault(ptr noundef %43, ptr noundef %44, ptr noundef %45)
  store ptr %46, ptr %14, align 8
  %47 = load ptr, ptr %7, align 8
  %48 = load ptr, ptr %10, align 8
  %49 = load ptr, ptr %12, align 8
  call void @JNU_ReleaseStringPlatformChars(ptr noundef %47, ptr noundef %48, ptr noundef %49)
  %50 = load ptr, ptr %7, align 8
  %51 = load ptr, ptr %11, align 8
  %52 = load ptr, ptr %13, align 8
  call void @JNU_ReleaseStringPlatformChars(ptr noundef %50, ptr noundef %51, ptr noundef %52)
  %53 = load ptr, ptr %14, align 8
  %54 = icmp ne ptr %53, null
  br i1 %54, label %55, label %59

55:                                               ; preds = %41
  %56 = load ptr, ptr %7, align 8
  %57 = load ptr, ptr %14, align 8
  %58 = call ptr @JNU_NewStringPlatform(ptr noundef %56, ptr noundef %57)
  store ptr %58, ptr %6, align 8
  br label %60

59:                                               ; preds = %41
  store ptr null, ptr %6, align 8
  br label %60

60:                                               ; preds = %59, %55, %37, %25
  %61 = load ptr, ptr %6, align 8
  ret ptr %61
}