; Function Attrs: nounwind uwtable
define ptr @Java_sun_awt_X11_XlibWrapper_XGetDefault(ptr noundef %0, ptr nocapture noundef readnone %1, i64 noundef %2, ptr noundef %3, ptr noundef %4) local_unnamed_addr #0 {
  %6 = icmp eq ptr %3, null
  br i1 %6, label %.thread, label %7

7:                                                ; preds = %5
  %8 = tail call ptr @JNU_GetStringPlatformChars(ptr noundef %0, ptr noundef nonnull %3, ptr noundef null) #14
  %9 = icmp eq ptr %8, null
  br i1 %9, label %.thread, label %10

10:                                               ; preds = %7
  %11 = icmp eq ptr %4, null
  br i1 %11, label %.thread29, label %12

12:                                               ; preds = %10
  %13 = tail call ptr @JNU_GetStringPlatformChars(ptr noundef %0, ptr noundef nonnull %4, ptr noundef null) #14
  %14 = icmp eq ptr %13, null
  br i1 %14, label %.thread29, label %15

.thread29:                                        ; preds = %10, %12
  tail call void @JNU_ReleaseStringPlatformChars(ptr noundef %0, ptr noundef nonnull %3, ptr noundef nonnull %8) #14
  br label %.thread

15:                                               ; preds = %12
  %16 = inttoptr i64 %2 to ptr
  %17 = tail call ptr @XGetDefault(ptr noundef %16, ptr noundef nonnull %8, ptr noundef nonnull %13) #14
  tail call void @JNU_ReleaseStringPlatformChars(ptr noundef %0, ptr noundef nonnull %3, ptr noundef nonnull %8) #14
  tail call void @JNU_ReleaseStringPlatformChars(ptr noundef %0, ptr noundef nonnull %4, ptr noundef nonnull %13) #14
  %.not = icmp eq ptr %17, null
  br i1 %.not, label %.thread, label %18

18:                                               ; preds = %15
  %19 = tail call ptr @JNU_NewStringPlatform(ptr noundef %0, ptr noundef nonnull %17) #14
  br label %.thread

.thread:                                          ; preds = %5, %15, %7, %18, %.thread29
  %.024 = phi ptr [ null, %.thread29 ], [ %19, %18 ], [ null, %7 ], [ null, %15 ], [ null, %5 ]
  ret ptr %.024
}